target datalayout = "e-m:e-p270:32:32-p271:32:32-p272:64:64-i64:64-i128:128-f80:128-n8:16:32:64-S128"
target triple = "x86_64-pc-linux-gnu"

%class.btConstraintSolverPoolMt = type <{ %class.btConstraintSolver, %class.btAlignedObjectArray, i32, [4 x i8] }>
%class.btConstraintSolver = type { ptr }
%class.btAlignedObjectArray = type <{ [4 x i8], i32, i32, [4 x i8], ptr, i8, [7 x i8] }>
%"struct.btConstraintSolverPoolMt::ThreadSolver" = type { ptr, %class.btSpinMutex, [116 x i8] }
%class.btSpinMutex = type { i32 }

; Function Attrs: inlinehint mustprogress nounwind uwtable
define linkonce_odr dso_local noundef i32 @_ZNK20btAlignedObjectArrayIN24btConstraintSolverPoolMt12ThreadSolverEE4sizeEv(ptr noundef nonnull align 8 dereferenceable(25) %0) #4 comdat align 2 {
  %2 = alloca ptr, align 8
  store ptr %0, ptr %2, align 8, !tbaa !18
  %3 = load ptr, ptr %2, align 8
  %4 = getelementptr inbounds nuw %class.btAlignedObjectArray, ptr %3, i32 0, i32 1
  %5 = load i32, ptr %4, align 4, !tbaa !24
  ret i32 %5
}

; Function Attrs: inlinehint mustprogress nounwind uwtable
define linkonce_odr dso_local noundef nonnull align 8 dereferenceable(128) ptr @_ZN20btAlignedObjectArrayIN24btConstraintSolverPoolMt12ThreadSolverEEixEi(ptr noundef nonnull align 8 dereferenceable(25) %0, i32 noundef %1) #4 comdat align 2 {
  %3 = alloca ptr, align 8
  %4 = alloca i32, align 4
  store ptr %0, ptr %3, align 8, !tbaa !18
  store i32 %1, ptr %4, align 4, !tbaa !9
  %5 = load ptr, ptr %3, align 8
  %6 = getelementptr inbounds nuw %class.btAlignedObjectArray, ptr %5, i32 0, i32 4
  %7 = load ptr, ptr %6, align 8, !tbaa !20
  %8 = load i32, ptr %4, align 4, !tbaa !9
  %9 = sext i32 %8 to i64
  %10 = getelementptr inbounds %"struct.btConstraintSolverPoolMt::ThreadSolver", ptr %7, i64 %9
  ret ptr %10
}

; Function Attrs: mustprogress uwtable
define dso_local noundef ptr @_ZN24btConstraintSolverPoolMt22getAndLockThreadSolverEv(ptr noundef nonnull align 8 dereferenceable(44) %0) #2 align 2 {
  %2 = alloca ptr, align 8
  %3 = alloca ptr, align 8
  %4 = alloca i32, align 4
  %5 = alloca ptr, align 8
  %6 = alloca i32, align 4
  store ptr %0, ptr %3, align 8, !tbaa !12
  %7 = load ptr, ptr %3, align 8
  call void @llvm.lifetime.start.p0(i64 4, ptr %4) #13
  store i32 0, ptr %4, align 4, !tbaa !9
  br label %8

8:                                                ; preds = %26, %1
  br label %9

9:                                                ; preds = %8
  call void @llvm.lifetime.start.p0(i64 8, ptr %5) #13
  %10 = getelementptr inbounds nuw %class.btConstraintSolverPoolMt, ptr %7, i32 0, i32 1
  %11 = load i32, ptr %4, align 4, !tbaa !9
  %12 = call noundef nonnull align 8 dereferenceable(128) ptr @_ZN20btAlignedObjectArrayIN24btConstraintSolverPoolMt12ThreadSolverEEixEi(ptr noundef nonnull align 8 dereferenceable(25) %10, i32 noundef %11)
  store ptr %12, ptr %5, align 8, !tbaa !14
  %13 = load ptr, ptr %5, align 8, !tbaa !14
  %14 = getelementptr inbounds nuw %"struct.btConstraintSolverPoolMt::ThreadSolver", ptr %13, i32 0, i32 1
  %15 = call noundef zeroext i1 @_ZN11btSpinMutex7tryLockEv(ptr noundef nonnull align 4 dereferenceable(4) %14)
  br i1 %15, label %16, label %18

16:                                               ; preds = %9
  %17 = load ptr, ptr %5, align 8, !tbaa !14
  store ptr %17, ptr %2, align 8
  store i32 1, ptr %6, align 4
  br label %24

18:                                               ; preds = %9
  %19 = load i32, ptr %4, align 4, !tbaa !9
  %20 = add nsw i32 %19, 1
  %21 = getelementptr inbounds nuw %class.btConstraintSolverPoolMt, ptr %7, i32 0, i32 1
  %22 = call noundef i32 @_ZNK20btAlignedObjectArrayIN24btConstraintSolverPoolMt12ThreadSolverEE4sizeEv(ptr noundef nonnull align 8 dereferenceable(25) %21)
  %23 = srem i32 %20, %22
  store i32 %23, ptr %4, align 4, !tbaa !9
  store i32 0, ptr %6, align 4
  br label %24

24:                                               ; preds = %18, %16
  call void @llvm.lifetime.end.p0(i64 8, ptr %5) #13
  %25 = load i32, ptr %6, align 4
  switch i32 %25, label %27 [
    i32 0, label %26
  ]

26:                                               ; preds = %24
  br label %8, !llvm.loop !16

27:                                               ; preds = %24
  call void @llvm.lifetime.end.p0(i64 4, ptr %4) #13
  %28 = load ptr, ptr %2, align 8
  ret ptr %28
}