; Function Attrs: mustprogress uwtable
define dso_local noundef ptr @_ZN24btConstraintSolverPoolMt22getAndLockThreadSolverEv(ptr noundef nonnull readonly align 8 captures(none) dereferenceable(44) %0) local_unnamed_addr #0 align 2 {
  %2 = getelementptr inbounds nuw i8, ptr %0, i64 24
  %3 = load ptr, ptr %2, align 8, !tbaa !4
  %4 = getelementptr inbounds nuw i8, ptr %3, i64 8
  %5 = tail call noundef zeroext i1 @_ZN11btSpinMutex7tryLockEv(ptr noundef nonnull align 4 dereferenceable(4) %4)
  br i1 %5, label %._crit_edge, label %.lr.ph

.lr.ph:                                           ; preds = %1
  %6 = getelementptr inbounds nuw i8, ptr %0, i64 12
  br label %7

7:                                                ; preds = %.lr.ph, %7
  %.0712 = phi i32 [ 0, %.lr.ph ], [ %10, %7 ]
  %8 = add nsw i32 %.0712, 1
  %9 = load i32, ptr %6, align 4, !tbaa !13
  %10 = srem i32 %8, %9
  %11 = load ptr, ptr %2, align 8, !tbaa !4
  %12 = sext i32 %10 to i64
  %13 = getelementptr inbounds %"struct.btConstraintSolverPoolMt::ThreadSolver", ptr %11, i64 %12
  %14 = getelementptr inbounds nuw i8, ptr %13, i64 8
  %15 = tail call noundef zeroext i1 @_ZN11btSpinMutex7tryLockEv(ptr noundef nonnull align 4 dereferenceable(4) %14)
  br i1 %15, label %._crit_edge, label %7

._crit_edge:                                      ; preds = %7, %1
  %.lcssa = phi ptr [ %3, %1 ], [ %13, %7 ]
  ret ptr %.lcssa
}